target datalayout = "e-m:e-p270:32:32-p271:32:32-p272:64:64-i64:64-i128:128-f80:128-n8:16:32:64-S128"
target triple = "x86_64-pc-linux-gnu"

@.str.14 = private unnamed_addr constant [23 x i8] c"position out of bounds\00", align 1

; Function Attrs: nounwind uwtable
define internal i32 @tremove(ptr noundef %0) #0 {
  %2 = alloca ptr, align 8
  %3 = alloca i64, align 8
  %4 = alloca i64, align 8
  store ptr %0, ptr %2, align 8, !tbaa !4
  call void @llvm.lifetime.start.p0(i64 8, ptr %3) #4
  %5 = load ptr, ptr %2, align 8, !tbaa !4
  call void @checktab(ptr noundef %5, i32 noundef 1, i32 noundef 7)
  %6 = load ptr, ptr %2, align 8, !tbaa !4
  %7 = call i64 @luaL_len(ptr noundef %6, i32 noundef 1)
  store i64 %7, ptr %3, align 8, !tbaa !9
  call void @llvm.lifetime.start.p0(i64 8, ptr %4) #4
  %8 = load ptr, ptr %2, align 8, !tbaa !4
  %9 = load i64, ptr %3, align 8, !tbaa !9
  %10 = call i64 @luaL_optinteger(ptr noundef %8, i32 noundef 2, i64 noundef %9)
  store i64 %10, ptr %4, align 8, !tbaa !9
  %11 = load i64, ptr %4, align 8, !tbaa !9
  %12 = load i64, ptr %3, align 8, !tbaa !9
  %13 = icmp ne i64 %11, %12
  br i1 %13, label %14, label %29

14:                                               ; preds = %1
  %15 = load i64, ptr %4, align 8, !tbaa !9
  %16 = sub i64 %15, 1
  %17 = load i64, ptr %3, align 8, !tbaa !9
  %18 = icmp ule i64 %16, %17
  %19 = zext i1 %18 to i32
  %20 = icmp ne i32 %19, 0
  %21 = zext i1 %20 to i32
  %22 = sext i32 %21 to i64
  %23 = call i64 @llvm.expect.i64(i64 %22, i64 1)
  %24 = icmp ne i64 %23, 0
  br i1 %24, label %28, label %25

25:                                               ; preds = %14
  %26 = load ptr, ptr %2, align 8, !tbaa !4
  %27 = call i32 @luaL_argerror(ptr noundef %26, i32 noundef 2, ptr noundef @.str.14)
  br label %28

28:                                               ; preds = %25, %14
  br label %29

29:                                               ; preds = %28, %1
  %30 = load ptr, ptr %2, align 8, !tbaa !4
  %31 = load i64, ptr %4, align 8, !tbaa !9
  %32 = call i32 @lua_geti(ptr noundef %30, i32 noundef 1, i64 noundef %31)
  br label %33

33:                                               ; preds = %44, %29
  %34 = load i64, ptr %4, align 8, !tbaa !9
  %35 = load i64, ptr %3, align 8, !tbaa !9
  %36 = icmp slt i64 %34, %35
  br i1 %36, label %37, label %47

37:                                               ; preds = %33
  %38 = load ptr, ptr %2, align 8, !tbaa !4
  %39 = load i64, ptr %4, align 8, !tbaa !9
  %40 = add nsw i64 %39, 1
  %41 = call i32 @lua_geti(ptr noundef %38, i32 noundef 1, i64 noundef %40)
  %42 = load ptr, ptr %2, align 8, !tbaa !4
  %43 = load i64, ptr %4, align 8, !tbaa !9
  call void @lua_seti(ptr noundef %42, i32 noundef 1, i64 noundef %43)
  br label %44

44:                                               ; preds = %37
  %45 = load i64, ptr %4, align 8, !tbaa !9
  %46 = add nsw i64 %45, 1
  store i64 %46, ptr %4, align 8, !tbaa !9
  br label %33

47:                                               ; preds = %33
  %48 = load ptr, ptr %2, align 8, !tbaa !4
  call void @lua_pushnil(ptr noundef %48)
  %49 = load ptr, ptr %2, align 8, !tbaa !4
  %50 = load i64, ptr %4, align 8, !tbaa !9
  call void @lua_seti(ptr noundef %49, i32 noundef 1, i64 noundef %50)
  call void @llvm.lifetime.end.p0(i64 8, ptr %4) #4
  call void @llvm.lifetime.end.p0(i64 8, ptr %3) #4
  ret i32 1
}