; Function Attrs: nounwind uwtable
define internal noundef i32 @tremove(ptr noundef %0) #0 {
  tail call fastcc void @checktab(ptr noundef %0, i32 noundef 1, i32 noundef 7)
  %2 = tail call i64 @luaL_len(ptr noundef %0, i32 noundef 1) #3
  %3 = tail call i64 @luaL_optinteger(ptr noundef %0, i32 noundef 2, i64 noundef %2) #3
  %.not = icmp ne i64 %3, %2
  %4 = add i64 %3, -1
  %.not22 = icmp ugt i64 %4, %2
  %or.cond = and i1 %.not, %.not22
  br i1 %or.cond, label %5, label %7, !prof !12

5:                                                ; preds = %1
  %6 = tail call i32 @luaL_argerror(ptr noundef %0, i32 noundef 2, ptr noundef nonnull @.str.14) #3
  br label %7

7:                                                ; preds = %5, %1
  %8 = tail call i32 @lua_geti(ptr noundef %0, i32 noundef 1, i64 noundef %3) #3
  %9 = icmp slt i64 %3, %2
  br i1 %9, label %.lr.ph, label %._crit_edge

.lr.ph:                                           ; preds = %7, %.lr.ph
  %.023 = phi i64 [ %10, %.lr.ph ], [ %3, %7 ]
  %10 = add nsw i64 %.023, 1
  %11 = tail call i32 @lua_geti(ptr noundef %0, i32 noundef 1, i64 noundef %10) #3
  tail call void @lua_seti(ptr noundef %0, i32 noundef 1, i64 noundef %.023) #3
  %exitcond.not = icmp eq i64 %10, %2
  br i1 %exitcond.not, label %._crit_edge, label %.lr.ph

._crit_edge:                                      ; preds = %.lr.ph, %7
  %.0.lcssa = phi i64 [ %3, %7 ], [ %2, %.lr.ph ]
  tail call void @lua_pushnil(ptr noundef %0) #3
  tail call void @lua_seti(ptr noundef %0, i32 noundef 1, i64 noundef %.0.lcssa) #3
  ret i32 1
}